target datalayout = "e-m:e-p270:32:32-p271:32:32-p272:64:64-i64:64-i128:128-f80:128-n8:16:32:64-S128"
target triple = "x86_64-pc-linux-gnu"

%struct.PQExpBufferData = type { ptr, i64, i64 }

@.str.12 = private unnamed_addr constant [5 x i8] c"NULL\00", align 1

; Function Attrs: nounwind uwtable
define dso_local void @appendPGArray(ptr noundef %0, ptr noundef %1) #0 {
  %3 = alloca ptr, align 8
  %4 = alloca ptr, align 8
  %5 = alloca i8, align 1
  %6 = alloca ptr, align 8
  %7 = alloca i8, align 1
  %8 = alloca i32, align 4
  %9 = alloca i8, align 1
  store ptr %0, ptr %3, align 8
  store ptr %1, ptr %4, align 8
  call void @llvm.lifetime.start.p0(i64 1, ptr %5) #8
  call void @llvm.lifetime.start.p0(i64 8, ptr %6) #8
  %10 = load ptr, ptr %3, align 8
  %11 = getelementptr inbounds nuw %struct.PQExpBufferData, ptr %10, i32 0, i32 0
  %12 = load ptr, ptr %11, align 8
  %13 = load ptr, ptr %3, align 8
  %14 = getelementptr inbounds nuw %struct.PQExpBufferData, ptr %13, i32 0, i32 1
  %15 = load i64, ptr %14, align 8
  %16 = sub i64 %15, 1
  %17 = getelementptr inbounds nuw i8, ptr %12, i64 %16
  %18 = load i8, ptr %17, align 1
  %19 = sext i8 %18 to i32
  %20 = icmp ne i32 %19, 123
  br i1 %20, label %21, label %23

21:                                               ; preds = %2
  %22 = load ptr, ptr %3, align 8
  call void @appendPQExpBufferChar(ptr noundef %22, i8 noundef signext 44)
  br label %23

23:                                               ; preds = %21, %2
  %24 = load ptr, ptr %4, align 8
  %25 = getelementptr inbounds i8, ptr %24, i64 0
  %26 = load i8, ptr %25, align 1
  %27 = sext i8 %26 to i32
  %28 = icmp eq i32 %27, 0
  br i1 %28, label %29, label %30

29:                                               ; preds = %23
  store i8 1, ptr %5, align 1
  br label %37

30:                                               ; preds = %23
  %31 = load ptr, ptr %4, align 8
  %32 = call i32 @pg_strcasecmp(ptr noundef %31, ptr noundef @.str.12)
  %33 = icmp eq i32 %32, 0
  br i1 %33, label %34, label %35

34:                                               ; preds = %30
  store i8 1, ptr %5, align 1
  br label %36

35:                                               ; preds = %30
  store i8 0, ptr %5, align 1
  br label %36

36:                                               ; preds = %35, %34
  br label %37

37:                                               ; preds = %36, %29
  %38 = load i8, ptr %5, align 1, !range !6, !noundef !7
  %39 = trunc i8 %38 to i1
  br i1 %39, label %101, label %40

40:                                               ; preds = %37
  %41 = load ptr, ptr %4, align 8
  store ptr %41, ptr %6, align 8
  br label %42

42:                                               ; preds = %97, %40
  %43 = load ptr, ptr %6, align 8
  %44 = load i8, ptr %43, align 1
  %45 = icmp ne i8 %44, 0
  br i1 %45, label %46, label %100

46:                                               ; preds = %42
  call void @llvm.lifetime.start.p0(i64 1, ptr %7) #8
  %47 = load ptr, ptr %6, align 8
  %48 = load i8, ptr %47, align 1
  store i8 %48, ptr %7, align 1
  %49 = load i8, ptr %7, align 1
  %50 = sext i8 %49 to i32
  %51 = icmp eq i32 %50, 34
  br i1 %51, label %92, label %52

52:                                               ; preds = %46
  %53 = load i8, ptr %7, align 1
  %54 = sext i8 %53 to i32
  %55 = icmp eq i32 %54, 92
  br i1 %55, label %92, label %56

56:                                               ; preds = %52
  %57 = load i8, ptr %7, align 1
  %58 = sext i8 %57 to i32
  %59 = icmp eq i32 %58, 123
  br i1 %59, label %92, label %60

60:                                               ; preds = %56
  %61 = load i8, ptr %7, align 1
  %62 = sext i8 %61 to i32
  %63 = icmp eq i32 %62, 125
  br i1 %63, label %92, label %64

64:                                               ; preds = %60
  %65 = load i8, ptr %7, align 1
  %66 = sext i8 %65 to i32
  %67 = icmp eq i32 %66, 44
  br i1 %67, label %92, label %68

68:                                               ; preds = %64
  %69 = load i8, ptr %7, align 1
  %70 = sext i8 %69 to i32
  %71 = icmp eq i32 %70, 32
  br i1 %71, label %92, label %72

72:                                               ; preds = %68
  %73 = load i8, ptr %7, align 1
  %74 = sext i8 %73 to i32
  %75 = icmp eq i32 %74, 9
  br i1 %75, label %92, label %76

76:                                               ; preds = %72
  %77 = load i8, ptr %7, align 1
  %78 = sext i8 %77 to i32
  %79 = icmp eq i32 %78, 10
  br i1 %79, label %92, label %80

80:                                               ; preds = %76
  %81 = load i8, ptr %7, align 1
  %82 = sext i8 %81 to i32
  %83 = icmp eq i32 %82, 13
  br i1 %83, label %92, label %84

84:                                               ; preds = %80
  %85 = load i8, ptr %7, align 1
  %86 = sext i8 %85 to i32
  %87 = icmp eq i32 %86, 11
  br i1 %87, label %92, label %88

88:                                               ; preds = %84
  %89 = load i8, ptr %7, align 1
  %90 = sext i8 %89 to i32
  %91 = icmp eq i32 %90, 12
  br i1 %91, label %92, label %93

92:                                               ; preds = %88, %84, %80, %76, %72, %68, %64, %60, %56, %52, %46
  store i8 1, ptr %5, align 1
  store i32 2, ptr %8, align 4
  br label %94

93:                                               ; preds = %88
  store i32 0, ptr %8, align 4
  br label %94

94:                                               ; preds = %93, %92
  call void @llvm.lifetime.end.p0(i64 1, ptr %7) #8
  %95 = load i32, ptr %8, align 4
  switch i32 %95, label %135 [
    i32 0, label %96
    i32 2, label %100
  ]

96:                                               ; preds = %94
  br label %97

97:                                               ; preds = %96
  %98 = load ptr, ptr %6, align 8
  %99 = getelementptr inbounds nuw i8, ptr %98, i32 1
  store ptr %99, ptr %6, align 8
  br label %42, !llvm.loop !21

100:                                              ; preds = %94, %42
  br label %101

101:                                              ; preds = %100, %37
  %102 = load i8, ptr %5, align 1, !range !6, !noundef !7
  %103 = trunc i8 %102 to i1
  br i1 %103, label %104, label %131

104:                                              ; preds = %101
  %105 = load ptr, ptr %3, align 8
  call void @appendPQExpBufferChar(ptr noundef %105, i8 noundef signext 34)
  %106 = load ptr, ptr %4, align 8
  store ptr %106, ptr %6, align 8
  br label %107

107:                                              ; preds = %126, %104
  %108 = load ptr, ptr %6, align 8
  %109 = load i8, ptr %108, align 1
  %110 = icmp ne i8 %109, 0
  br i1 %110, label %111, label %129

111:                                              ; preds = %107
  call void @llvm.lifetime.start.p0(i64 1, ptr %9) #8
  %112 = load ptr, ptr %6, align 8
  %113 = load i8, ptr %112, align 1
  store i8 %113, ptr %9, align 1
  %114 = load i8, ptr %9, align 1
  %115 = sext i8 %114 to i32
  %116 = icmp eq i32 %115, 34
  br i1 %116, label %121, label %117

117:                                              ; preds = %111
  %118 = load i8, ptr %9, align 1
  %119 = sext i8 %118 to i32
  %120 = icmp eq i32 %119, 92
  br i1 %120, label %121, label %123

121:                                              ; preds = %117, %111
  %122 = load ptr, ptr %3, align 8
  call void @appendPQExpBufferChar(ptr noundef %122, i8 noundef signext 92)
  br label %123

123:                                              ; preds = %121, %117
  %124 = load ptr, ptr %3, align 8
  %125 = load i8, ptr %9, align 1
  call void @appendPQExpBufferChar(ptr noundef %124, i8 noundef signext %125)
  call void @llvm.lifetime.end.p0(i64 1, ptr %9) #8
  br label %126

126:                                              ; preds = %123
  %127 = load ptr, ptr %6, align 8
  %128 = getelementptr inbounds nuw i8, ptr %127, i32 1
  store ptr %128, ptr %6, align 8
  br label %107, !llvm.loop !22

129:                                              ; preds = %107
  %130 = load ptr, ptr %3, align 8
  call void @appendPQExpBufferChar(ptr noundef %130, i8 noundef signext 34)
  br label %134

131:                                              ; preds = %101
  %132 = load ptr, ptr %3, align 8
  %133 = load ptr, ptr %4, align 8
  call void @appendPQExpBufferStr(ptr noundef %132, ptr noundef %133)
  br label %134

134:                                              ; preds = %131, %129
  call void @llvm.lifetime.end.p0(i64 8, ptr %6) #8
  call void @llvm.lifetime.end.p0(i64 1, ptr %5) #8
  ret void

135:                                              ; preds = %94
  unreachable
}