; Function Attrs: nounwind uwtable
define dso_local void @appendPGArray(ptr noundef %0, ptr noundef %1) local_unnamed_addr #0 {
  %3 = load ptr, ptr %0, align 8
  %4 = getelementptr inbounds nuw i8, ptr %0, i64 8
  %5 = load i64, ptr %4, align 8
  %6 = getelementptr i8, ptr %3, i64 %5
  %7 = getelementptr i8, ptr %6, i64 -1
  %8 = load i8, ptr %7, align 1
  %.not = icmp eq i8 %8, 123
  br i1 %.not, label %10, label %9

9:                                                ; preds = %2
  tail call void @appendPQExpBufferChar(ptr noundef nonnull %0, i8 noundef signext 44) #11
  br label %10

10:                                               ; preds = %9, %2
  %11 = load i8, ptr %1, align 1
  %12 = icmp eq i8 %11, 0
  br i1 %12, label %.thread80, label %13

13:                                               ; preds = %10
  %14 = tail call i32 @pg_strcasecmp(ptr noundef nonnull %1, ptr noundef nonnull @.str.12) #11
  %15 = icmp eq i32 %14, 0
  br i1 %15, label %.thread80, label %.preheader

.preheader:                                       ; preds = %13, %17
  %.068 = phi ptr [ %18, %17 ], [ %1, %13 ]
  %16 = load i8, ptr %.068, align 1
  switch i8 %16, label %17 [
    i8 0, label %25
    i8 125, label %.thread80
    i8 123, label %.thread80
    i8 92, label %.thread80
    i8 44, label %.thread80
    i8 34, label %.thread80
    i8 32, label %.thread80
    i8 13, label %.thread80
    i8 12, label %.thread80
    i8 11, label %.thread80
    i8 10, label %.thread80
    i8 9, label %.thread80
  ]

17:                                               ; preds = %.preheader
  %18 = getelementptr inbounds nuw i8, ptr %.068, i64 1
  br label %.preheader, !llvm.loop !19

.thread80:                                        ; preds = %.preheader, %.preheader, %.preheader, %.preheader, %.preheader, %.preheader, %.preheader, %.preheader, %.preheader, %.preheader, %.preheader, %10, %13
  tail call void @appendPQExpBufferChar(ptr noundef nonnull %0, i8 noundef signext 34) #11
  br label %19

19:                                               ; preds = %22, %.thread80
  %.169 = phi ptr [ %1, %.thread80 ], [ %23, %22 ]
  %20 = load i8, ptr %.169, align 1
  switch i8 %20, label %22 [
    i8 0, label %24
    i8 92, label %21
    i8 34, label %21
  ]

21:                                               ; preds = %19, %19
  tail call void @appendPQExpBufferChar(ptr noundef nonnull %0, i8 noundef signext 92) #11
  br label %22

22:                                               ; preds = %19, %21
  tail call void @appendPQExpBufferChar(ptr noundef nonnull %0, i8 noundef signext %20) #11
  %23 = getelementptr inbounds nuw i8, ptr %.169, i64 1
  br label %19, !llvm.loop !20

24:                                               ; preds = %19
  tail call void @appendPQExpBufferChar(ptr noundef nonnull %0, i8 noundef signext 34) #11
  br label %26

25:                                               ; preds = %.preheader
  tail call void @appendPQExpBufferStr(ptr noundef nonnull %0, ptr noundef nonnull %1) #11
  br label %26

26:                                               ; preds = %25, %24
  ret void
}